(dp0
S'IW_MKF_LSQLITE3'
p1
NsS'IW_ASSERTION_CHANNEL_AMAZONINAPPPURCHASING'
p2
S'1'
p3
sS'IW_ASSERTION_CHANNEL_HTTP'
p4
g3
sS'IW_MKF_TINICONV'
p5
NsS'IW_HTTP_SSL'
p6
NsS'IW_MKF_IWRESMANAGER'
p7
NsS'IW_MKF_SQLITE'
p8
NsS'IW_TRACE_CHANNEL_INAPPBILLING'
p9
g3
sS'IW_APP_NAME'
p10
S'"GameSceneGL"'
p11
sS'IW_MKF_S3E_DEFAULT'
p12
NsS'IW_MKF_IWGXFONT'
p13
NsS'IW_MKF_AMAZON_IN_APP_PURCHASING_ANDROID_SDK'
p14
NsS'IW_TRACE_CHANNEL_ANDROIDGOOGLEPLAYBILLING'
p15
g3
sS'IW_TRACE_CHANNEL_IOSAPPSTOREBILLING_VERBOSE'
p16
S'2'
p17
sS'IW_MKF_MARMALADE_FACEBOOK_IPHONE_SDK'
p18
NsS'IW_ASSERTION_CHANNEL_WEBVIEW'
p19
g3
sS'IW_USE_ASSERTIONS'
p20
NsS'IW_MKF_S3EWEBVIEW'
p21
NsS'IW_TRACE_CHANNEL_INAPPBILLING_VERBOSE'
p22
g17
sS'IW_MKF_DERBH'
p23
NsS'IW_TRACE_CHANNEL_FACEBOOK_VERBOSE'
p24
g17
sS'IW_TRACE_CHANNEL_PVRTEXTOOL'
p25
g3
sS'IW_TRACE_CHANNEL_PVRTEXTOOL_VERBOSE'
p26
g17
sS'SQLITE_OMIT_LOAD_EXTENSION'
p27
NsS'IW_USE_CALLSTACK'
p28
NsS'IW_MKF_IWBILLING'
p29
NsS'__S3E__'
p30
NsS'IW_TRACE_CHANNEL_WEBVIEW'
p31
g3
sS'IW_MKF_IWHTTP'
p32
NsS'IW_GXFONT_TTF'
p33
NsS'IW_MKF_IWGX'
p34
NsS'IW_APP_VERSION'
p35
S'"1.0"'
p36
sS'IW_MKF_S3EANDROIDGOOGLEPLAYBILLING'
p37
NsS'IW_MKF_ZLIB'
p38
NsS'IW_TRACE_CHANNEL_HTTP'
p39
g3
sS'IW_MKF_S3EAMAZONINAPPPURCHASING'
p40
NsS'IW_DEBUG'
p41
NsS'IW_USE_TRACING'
p42
NsS'IW_MKF_MARMALADE_FACEBOOK_ANDROID_SDK'
p43
NsS'S3E_INCLUDE_LEGACY'
p44
NsS'IW_TRACE_CHANNEL_HTTP_VERBOSE'
p45
g3
sS'IW_ASSERTION_CHANNEL_UTIL'
p46
g3
sS'IW_ASSERTION_CHANNEL_IOSAPPSTOREBILLING'
p47
g3
sS'IW_MKF_BOLTS_ANDROID'
p48
NsS'IW_MKF_S3EFACEBOOK'
p49
NsS'I3D_PLATFORM_S3E'
p50
NsS'IW_TRACE_CHANNEL_ANDROIDGOOGLEPLAYBILLING_VERBOSE'
p51
g17
sS'IW_MKF_LIBJPEG'
p52
NsS'I3D_OS_S3E'
p53
NsS'TARGET_PLATFORM'
p54
S'MARMALADE'
p55
sS'IW_SDK'
p56
NsS'CZ_FACEBOOK_ENABLE'
p57
NsS'IW_ASSERTION_CHANNEL_2D'
p58
g3
sS'IW_ASSERTION_CHANNEL_ANDROIDGOOGLEPLAYBILLING'
p59
g3
sS'IW_ASSERTION_CHANNEL_FACEBOOK'
p60
g3
sS'IW_ASSERTION_CHANNEL_SAMSUNGINAPPPURCHASING'
p61
g3
sS'IW_ASSERTION_CHANNEL_FIBRE'
p62
g3
sS'IW_TRACE_CHANNEL_AMAZONINAPPPURCHASING_VERBOSE'
p63
g17
sS'IW_TRACE_CHANNEL_FIBRE'
p64
g3
sS'IW_MKF_APPEASY'
p65
NsS'IW_TRACE_CHANNEL_SAMSUNGINAPPPURCHASING_VERBOSE'
p66
g17
sS'IW_ASSERTION_CHANNEL_WINDOWSSTOREBILLING'
p67
g3
sS'IW_MKF_IW2D'
p68
NsS'IW_TRACE_CHANNEL_WEBVIEW_VERBOSE'
p69
g17
sS'IW_MKF_S3EIOSAPPSTOREBILLING'
p70
NsS'IW_MKF_ANDROID_SUPPORT_V4'
p71
NsS'IW_MKF_PVRTEXTOOL'
p72
NsS'IW_TRACE_CHANNEL_SAMSUNGINAPPPURCHASING'
p73
g3
sS'IW_MKF_LUA_VEC'
p74
NsS'IW_MKF_IWUTIL'
p75
NsS'IW_PLATFORM_S3E'
p76
NsS'IW_MKF_S3ESAMSUNGINAPPPURCHASING'
p77
NsS'IW_TRACE_CHANNEL_UTIL'
p78
g3
sS'IW_TRACE_CHANNEL_IOSAPPSTOREBILLING'
p79
g3
sS'IW_TRACE_CHANNEL_WINDOWSSTOREBILLING'
p80
g3
sS'IW_MKF_SOUNDENGINE'
p81
NsS'IW_MKF_IWGL'
p82
NsS'IW_MKF_LIBPNG'
p83
NsS'IW_MKF_GAMESCENEGL_DEPLOYMENT'
p84
NsS'IW_MKF_S3EWINDOWSSTOREBILLING'
p85
NsS'IW_MKF_BOX2D'
p86
NsS'IW_TRACE_CHANNEL_FACEBOOK'
p87
g3
sS'IW_ASSERTION_CHANNEL_PVRTEXTOOL'
p88
g3
sS'IW_TRACE_CHANNEL_AMAZONINAPPPURCHASING'
p89
g3
sS'IW_MKF_IWGEOM'
p90
NsS'IW_TRACE_CHANNEL_WINDOWSSTOREBILLING_VERBOSE'
p91
g17
sS'IW_TRACE_CHANNEL_FIBRE_VERBOSE'
p92
g3
s.