	.arch armv4t
	.fpu softvfp
	.eabi_attribute 20, 1
	.eabi_attribute 21, 1
	.eabi_attribute 23, 3
	.eabi_attribute 24, 1
	.eabi_attribute 25, 1
	.eabi_attribute 26, 2
	.eabi_attribute 30, 6
	.eabi_attribute 18, 4
	.file	"UserAgent.cpp"
	.text
.Ltext0:
	.section	.text._Z13UserAgentInitv,"ax",%progbits
	.align	2
	.global	_Z13UserAgentInitv
	.hidden	_Z13UserAgentInitv
	.type	_Z13UserAgentInitv, %function
_Z13UserAgentInitv:
.LFB0:
	.file 1 "E:\\Apps\\AirPlay\\IwGame_Debug\\Libs\\UserAgent\\source\\generic\\UserAgent.cpp"
	.loc 1 15 0
	@ Function supports interworking.
	@ args = 0, pretend = 0, frame = 0
	@ frame_needed = 0, uses_anonymous_args = 0
	stmfd	sp!, {r4, lr}
.LCFI0:
	.loc 1 17 0
	bl	_Z22UserAgentInit_platformv(PLT)
	mov	r3, r0
	.loc 1 18 0
	mov	r0, r3
	ldmfd	sp!, {r4, lr}
	bx	lr
.LFE0:
	.size	_Z13UserAgentInitv, .-_Z13UserAgentInitv
	.section	.text._Z18UserAgentTerminatev,"ax",%progbits
	.align	2
	.global	_Z18UserAgentTerminatev
	.hidden	_Z18UserAgentTerminatev
	.type	_Z18UserAgentTerminatev, %function
_Z18UserAgentTerminatev:
.LFB1:
	.loc 1 21 0
	@ Function supports interworking.
	@ args = 0, pretend = 0, frame = 0
	@ frame_needed = 0, uses_anonymous_args = 0
	stmfd	sp!, {r4, lr}
.LCFI1:
	.loc 1 23 0
	bl	_Z27UserAgentTerminate_platformv(PLT)
	.loc 1 24 0
	ldmfd	sp!, {r4, lr}
	bx	lr
.LFE1:
	.size	_Z18UserAgentTerminatev, .-_Z18UserAgentTerminatev
	.section	.text.getUserAgent,"ax",%progbits
	.align	2
	.global	getUserAgent
	.hidden	getUserAgent
	.type	getUserAgent, %function
getUserAgent:
.LFB2:
	.loc 1 27 0
	@ Function supports interworking.
	@ args = 0, pretend = 0, frame = 0
	@ frame_needed = 0, uses_anonymous_args = 0
	stmfd	sp!, {r4, lr}
.LCFI2:
	.loc 1 28 0
	bl	_Z21getUserAgent_platformv(PLT)
	mov	r3, r0
	.loc 1 29 0
	mov	r0, r3
	ldmfd	sp!, {r4, lr}
	bx	lr
.LFE2:
	.size	getUserAgent, .-getUserAgent
	.section	.debug_frame,"",%progbits
.Lframe0:
	.4byte	.LECIE0-.LSCIE0
.LSCIE0:
	.4byte	0xffffffff
	.byte	0x1
	.ascii	"\000"
	.uleb128 0x1
	.sleb128 -4
	.byte	0xe
	.byte	0xc
	.uleb128 0xd
	.uleb128 0x0
	.align	2
.LECIE0:
.LSFDE0:
	.4byte	.LEFDE0-.LASFDE0
.LASFDE0:
	.4byte	.Lframe0
	.4byte	.LFB0
	.4byte	.LFE0-.LFB0
	.byte	0x4
	.4byte	.LCFI0-.LFB0
	.byte	0xe
	.uleb128 0x8
	.byte	0x11
	.uleb128 0xe
	.sleb128 1
	.byte	0x11
	.uleb128 0x4
	.sleb128 2
	.align	2
.LEFDE0:
.LSFDE2:
	.4byte	.LEFDE2-.LASFDE2
.LASFDE2:
	.4byte	.Lframe0
	.4byte	.LFB1
	.4byte	.LFE1-.LFB1
	.byte	0x4
	.4byte	.LCFI1-.LFB1
	.byte	0xe
	.uleb128 0x8
	.byte	0x11
	.uleb128 0xe
	.sleb128 1
	.byte	0x11
	.uleb128 0x4
	.sleb128 2
	.align	2
.LEFDE2:
.LSFDE4:
	.4byte	.LEFDE4-.LASFDE4
.LASFDE4:
	.4byte	.Lframe0
	.4byte	.LFB2
	.4byte	.LFE2-.LFB2
	.byte	0x4
	.4byte	.LCFI2-.LFB2
	.byte	0xe
	.uleb128 0x8
	.byte	0x11
	.uleb128 0xe
	.sleb128 1
	.byte	0x11
	.uleb128 0x4
	.sleb128 2
	.align	2
.LEFDE4:
	.text
.Letext0:
	.section	.note.GNU-stack,"",%progbits
